; ModuleID = 'source-C-CXX/59/1417.c'
source_filename = "source-C-CXX/59/1417.c"
target datalayout = "e-m:e-p270:32:32-p271:32:32-p272:64:64-i64:64-f80:128-n8:16:32:64-S128"
target triple = "x86_64-pc-linux-gnu"

@.str = private unnamed_addr constant [3 x i8] c"%d\00", align 1
@.str.1 = private unnamed_addr constant [6 x i8] c"empty\00", align 1
@.str.2 = private unnamed_addr constant [7 x i8] c"%d %d\0A\00", align 1

; Function Attrs: nofree nounwind sspstrong uwtable
define dso_local i32 @main() local_unnamed_addr #0 {
  %1 = alloca i32, align 4
  %2 = bitcast i32* %1 to i8*
  call void @llvm.lifetime.start.p0i8(i64 4, i8* nonnull %2) #4
  %3 = call i32 (i8*, ...) @__isoc99_scanf(i8* getelementptr inbounds ([3 x i8], [3 x i8]* @.str, i64 0, i64 0), i32* nonnull %1)
  %4 = load i32, i32* %1, align 4, !tbaa !5
  %5 = icmp slt i32 %4, 5
  br i1 %5, label %6, label %8

6:                                                ; preds = %0
  %7 = call i32 (i8*, ...) @printf(i8* nonnull dereferenceable(1) getelementptr inbounds ([6 x i8], [6 x i8]* @.str.1, i64 0, i64 0))
  br label %41

8:                                                ; preds = %0, %36
  %9 = phi i32 [ %37, %36 ], [ 3, %0 ]
  %10 = sitofp i32 %9 to double
  %11 = call double @sqrt(double %10) #4
  %12 = fptosi double %11 to i32
  %13 = icmp slt i32 %12, 2
  br i1 %13, label %21, label %17

14:                                               ; preds = %17
  %15 = add nuw i32 %18, 1
  %16 = icmp eq i32 %18, %12
  br i1 %16, label %21, label %17, !llvm.loop !9

17:                                               ; preds = %8, %14
  %18 = phi i32 [ %15, %14 ], [ 2, %8 ]
  %19 = urem i32 %9, %18
  %20 = icmp eq i32 %19, 0
  br i1 %20, label %36, label %14

21:                                               ; preds = %14, %8
  %22 = add nuw nsw i32 %9, 2
  %23 = sitofp i32 %22 to double
  %24 = call double @sqrt(double %23) #4
  %25 = fptosi double %24 to i32
  %26 = icmp slt i32 %25, 2
  br i1 %26, label %34, label %30

27:                                               ; preds = %30
  %28 = add nuw i32 %31, 1
  %29 = icmp eq i32 %31, %25
  br i1 %29, label %34, label %30, !llvm.loop !11

30:                                               ; preds = %21, %27
  %31 = phi i32 [ %28, %27 ], [ 2, %21 ]
  %32 = urem i32 %22, %31
  %33 = icmp eq i32 %32, 0
  br i1 %33, label %36, label %27

34:                                               ; preds = %27, %21
  %35 = call i32 (i8*, ...) @printf(i8* nonnull dereferenceable(1) getelementptr inbounds ([7 x i8], [7 x i8]* @.str.2, i64 0, i64 0), i32 %9, i32 %22)
  br label %36

36:                                               ; preds = %17, %30, %34
  %37 = add nuw nsw i32 %9, 1
  %38 = load i32, i32* %1, align 4, !tbaa !5
  %39 = add nsw i32 %38, -2
  %40 = icmp slt i32 %9, %39
  br i1 %40, label %8, label %41, !llvm.loop !12

41:                                               ; preds = %36, %6
  call void @llvm.lifetime.end.p0i8(i64 4, i8* nonnull %2) #4
  ret i32 0
}

; Function Attrs: argmemonly mustprogress nofree nosync nounwind willreturn
declare void @llvm.lifetime.start.p0i8(i64 immarg, i8* nocapture) #1

; Function Attrs: nofree nounwind
declare noundef i32 @__isoc99_scanf(i8* nocapture noundef readonly, ...) local_unnamed_addr #2

; Function Attrs: nofree nounwind
declare noundef i32 @printf(i8* nocapture noundef readonly, ...) local_unnamed_addr #2

; Function Attrs: mustprogress nofree nounwind willreturn
declare double @sqrt(double) local_unnamed_addr #3

; Function Attrs: argmemonly mustprogress nofree nosync nounwind willreturn
declare void @llvm.lifetime.end.p0i8(i64 immarg, i8* nocapture) #1


!llvm.module.flags = !{!0, !1, !2, !3}
!llvm.ident = !{!4}

!0 = !{i32 1, !"wchar_size", i32 4}
!1 = !{i32 7, !"PIC Level", i32 2}
!2 = !{i32 7, !"PIE Level", i32 2}
!3 = !{i32 7, !"uwtable", i32 1}
!4 = !{!"clang version 13.0.0"}
!5 = !{!6, !6, i64 0}
!6 = !{!"int", !7, i64 0}
!7 = !{!"omnipotent char", !8, i64 0}
!8 = !{!"Simple C/C++ TBAA"}
!9 = distinct !{!9, !10}
!10 = !{!"llvm.loop.mustprogress"}
!11 = distinct !{!11, !10}
!12 = distinct !{!12, !10}
